; Function Attrs: nounwind sspstrong uwtable
define internal fastcc void @range_init(i64 noundef %0, i64 noundef %1, i64 noundef %2, i64 noundef range(i64 0, 21) %3) unnamed_addr #0 {
  %5 = and i64 %1, 1
  %6 = and i64 %5, %2
  %or.cond = icmp ne i64 %6, 0
  %7 = icmp eq i64 %1, 4
  %or.cond24 = or i1 %7, %or.cond
  %8 = icmp eq i64 %2, 4
  %or.cond25 = or i1 %8, %or.cond24
  br i1 %or.cond25, label %14, label %9

9:                                                ; preds = %4
  %10 = tail call i64 (i64, i64, i32, ...) @rb_funcall(i64 noundef %1, i64 noundef 135, i32 noundef 1, i64 noundef %2) #13
  %11 = icmp eq i64 %10, 4
  br i1 %11, label %12, label %14

12:                                               ; preds = %9
  %13 = load i64, ptr @rb_eArgError, align 8, !tbaa !7
  tail call void (i64, ptr, ...) @rb_raise(i64 noundef %13, ptr noundef nonnull @.str.32) #14
  unreachable

14:                                               ; preds = %4, %9
  %15 = inttoptr i64 %0 to ptr
  %16 = load i64, ptr %15, align 8, !tbaa !11
  %17 = and i64 %16, 1040384
  %.not.i.i = icmp eq i64 %17, 0
  br i1 %.not.i.i, label %20, label %18

18:                                               ; preds = %14
  %19 = getelementptr inbounds nuw i8, ptr %15, i64 16
  br label %RSTRUCT_CONST_PTR.exit.i

20:                                               ; preds = %14
  %21 = getelementptr inbounds nuw i8, ptr %15, i64 24
  %22 = load ptr, ptr %21, align 8, !tbaa !13
  br label %RSTRUCT_CONST_PTR.exit.i

RSTRUCT_CONST_PTR.exit.i:                         ; preds = %20, %18
  %.0.i.i = phi ptr [ %19, %18 ], [ %22, %20 ]
  %23 = getelementptr i8, ptr %.0.i.i, i64 16
  store i64 %3, ptr %23, align 8, !tbaa !7
  %24 = icmp eq i64 %3, 0
  %25 = and i64 %3, 7
  %26 = icmp ne i64 %25, 0
  %27 = or i1 %24, %26
  br i1 %27, label %internal_RSTRUCT_SET.exit, label %28

28:                                               ; preds = %RSTRUCT_CONST_PTR.exit.i
  tail call void @rb_gc_writebarrier(i64 noundef %0, i64 noundef %3) #13
  br label %internal_RSTRUCT_SET.exit

internal_RSTRUCT_SET.exit:                        ; preds = %RSTRUCT_CONST_PTR.exit.i, %28
  %29 = load i64, ptr %15, align 8, !tbaa !11
  %30 = and i64 %29, 1040384
  %.not.i.i15 = icmp eq i64 %30, 0
  br i1 %.not.i.i15, label %33, label %31

31:                                               ; preds = %internal_RSTRUCT_SET.exit
  %32 = getelementptr inbounds nuw i8, ptr %15, i64 16
  br label %RSTRUCT_CONST_PTR.exit.i16

33:                                               ; preds = %internal_RSTRUCT_SET.exit
  %34 = getelementptr inbounds nuw i8, ptr %15, i64 24
  %35 = load ptr, ptr %34, align 8, !tbaa !13
  br label %RSTRUCT_CONST_PTR.exit.i16

RSTRUCT_CONST_PTR.exit.i16:                       ; preds = %33, %31
  %.0.i.i17 = phi ptr [ %32, %31 ], [ %35, %33 ]
  store i64 %1, ptr %.0.i.i17, align 8, !tbaa !7
  %36 = icmp eq i64 %1, 0
  %37 = and i64 %1, 7
  %38 = icmp ne i64 %37, 0
  %39 = or i1 %36, %38
  br i1 %39, label %internal_RSTRUCT_SET.exit18, label %40

40:                                               ; preds = %RSTRUCT_CONST_PTR.exit.i16
  tail call void @rb_gc_writebarrier(i64 noundef %0, i64 noundef %1) #13
  br label %internal_RSTRUCT_SET.exit18

internal_RSTRUCT_SET.exit18:                      ; preds = %RSTRUCT_CONST_PTR.exit.i16, %40
  %41 = load i64, ptr %15, align 8, !tbaa !11
  %42 = and i64 %41, 1040384
  %.not.i.i19 = icmp eq i64 %42, 0
  br i1 %.not.i.i19, label %45, label %43

43:                                               ; preds = %internal_RSTRUCT_SET.exit18
  %44 = getelementptr inbounds nuw i8, ptr %15, i64 16
  br label %RSTRUCT_CONST_PTR.exit.i20

45:                                               ; preds = %internal_RSTRUCT_SET.exit18
  %46 = getelementptr inbounds nuw i8, ptr %15, i64 24
  %47 = load ptr, ptr %46, align 8, !tbaa !13
  br label %RSTRUCT_CONST_PTR.exit.i20

RSTRUCT_CONST_PTR.exit.i20:                       ; preds = %45, %43
  %.0.i.i21 = phi ptr [ %44, %43 ], [ %47, %45 ]
  %48 = getelementptr i8, ptr %.0.i.i21, i64 8
  store i64 %2, ptr %48, align 8, !tbaa !7
  %49 = icmp eq i64 %2, 0
  %50 = and i64 %2, 7
  %51 = icmp ne i64 %50, 0
  %52 = or i1 %49, %51
  br i1 %52, label %internal_RSTRUCT_SET.exit22, label %53

53:                                               ; preds = %RSTRUCT_CONST_PTR.exit.i20
  tail call void @rb_gc_writebarrier(i64 noundef %0, i64 noundef %2) #13
  br label %internal_RSTRUCT_SET.exit22

internal_RSTRUCT_SET.exit22:                      ; preds = %RSTRUCT_CONST_PTR.exit.i20, %53
  %54 = icmp eq i64 %0, 0
  %55 = and i64 %0, 7
  %56 = icmp ne i64 %55, 0
  %57 = or i1 %54, %56
  br i1 %57, label %60, label %58

58:                                               ; preds = %internal_RSTRUCT_SET.exit22
  %59 = getelementptr inbounds nuw i8, ptr %15, i64 8
  br label %rb_class_of.exit

60:                                               ; preds = %internal_RSTRUCT_SET.exit22
  switch i64 %0, label %63 [
    i64 0, label %rb_class_of.exit
    i64 4, label %61
    i64 20, label %62
  ]

61:                                               ; preds = %60
  br label %rb_class_of.exit

62:                                               ; preds = %60
  br label %rb_class_of.exit

63:                                               ; preds = %60
  %64 = and i64 %0, 1
  %.not.i = icmp eq i64 %64, 0
  br i1 %.not.i, label %65, label %rb_class_of.exit

65:                                               ; preds = %63
  %66 = and i64 %0, 254
  %67 = icmp eq i64 %66, 12
  %spec.select.i = select i1 %67, ptr @rb_cSymbol, ptr @rb_cFloat
  br label %rb_class_of.exit

rb_class_of.exit:                                 ; preds = %58, %60, %61, %62, %63, %65
  %.0.in.i = phi ptr [ @rb_cNilClass, %61 ], [ @rb_cTrueClass, %62 ], [ %59, %58 ], [ @rb_cFalseClass, %60 ], [ @rb_cInteger, %63 ], [ %spec.select.i, %65 ]
  %.0.i = load i64, ptr %.0.in.i, align 8, !tbaa !7
  %68 = load i64, ptr @rb_cRange, align 8, !tbaa !7
  %69 = icmp eq i64 %.0.i, %68
  br i1 %69, label %70, label %72

70:                                               ; preds = %rb_class_of.exit
  %71 = tail call i64 @rb_obj_freeze(i64 noundef %0) #13
  br label %72

72:                                               ; preds = %70, %rb_class_of.exit
  ret void
}